; Function Attrs: mustprogress uwtable
define hidden void @_ZN4ncnn4BiasC2Ev(ptr noundef nonnull align 8 dereferenceable(288) %0) unnamed_addr #1 align 2 personality ptr @__gxx_personality_v0 {
  tail call void @_ZN4ncnn5LayerC2Ev(ptr noundef nonnull align 8 dereferenceable(208) %0)
  store ptr getelementptr inbounds nuw inrange(-16, 80) (i8, ptr @_ZTVN4ncnn4BiasE, i64 16), ptr %0, align 8, !tbaa !4
  %2 = getelementptr inbounds nuw i8, ptr %0, i64 216
  %3 = getelementptr inbounds nuw i8, ptr %0, i64 248
  %4 = getelementptr inbounds nuw i8, ptr %0, i64 280
  store i64 0, ptr %4, align 8, !tbaa !17
  %5 = getelementptr inbounds nuw i8, ptr %0, i64 8
  tail call void @llvm.memset.p0.i64(ptr noundef nonnull align 8 dereferenceable(28) %2, i8 0, i64 28, i1 false)
  tail call void @llvm.memset.p0.i64(ptr noundef nonnull align 8 dereferenceable(28) %3, i8 0, i64 28, i1 false)
  store i8 1, ptr %5, align 8, !tbaa !44
  %6 = getelementptr inbounds nuw i8, ptr %0, i64 9
  store i8 1, ptr %6, align 1, !tbaa !45
  ret void
}